
_sham_test:     file format elf32-i386


Disassembly of section .text:

00000000 <main>:
    for (int i = 0; i < NPROCESS; i++)
        wait();
    close_sharedmem(ID);
}

int main(int argc, char* argv[]) {
   0:	55                   	push   %ebp
   1:	89 e5                	mov    %esp,%ebp
   3:	83 e4 f0             	and    $0xfffffff0,%esp
    test_sharedmem();
   6:	e8 05 00 00 00       	call   10 <test_sharedmem>
    exit();
   b:	e8 f3 02 00 00       	call   303 <exit>

00000010 <test_sharedmem>:
void test_sharedmem(void) {
  10:	55                   	push   %ebp
  11:	89 e5                	mov    %esp,%ebp
  13:	53                   	push   %ebx
    for (int i = 0; i < NPROCESS; i++) {
  14:	31 db                	xor    %ebx,%ebx
void test_sharedmem(void) {
  16:	83 ec 10             	sub    $0x10,%esp
    char* adr = open_sharedmem(ID);
  19:	6a 1e                	push   $0x1e
  1b:	e8 ab 03 00 00       	call   3cb <open_sharedmem>
    printf(1, "%d\n", adr[0]);
  20:	83 c4 0c             	add    $0xc,%esp
    adr[0] = 1;
  23:	c6 00 01             	movb   $0x1,(%eax)
    printf(1, "%d\n", adr[0]);
  26:	6a 01                	push   $0x1
  28:	68 f8 07 00 00       	push   $0x7f8
  2d:	6a 01                	push   $0x1
  2f:	e8 5c 04 00 00       	call   490 <printf>
  34:	83 c4 10             	add    $0x10,%esp
        if (fork() == 0) {
  37:	e8 bf 02 00 00       	call   2fb <fork>
  3c:	89 da                	mov    %ebx,%edx
            adrs[0] *= (i+1);
  3e:	83 c3 01             	add    $0x1,%ebx
        if (fork() == 0) {
  41:	85 c0                	test   %eax,%eax
  43:	74 30                	je     75 <test_sharedmem+0x65>
    for (int i = 0; i < NPROCESS; i++) {
  45:	83 fb 05             	cmp    $0x5,%ebx
  48:	75 ed                	jne    37 <test_sharedmem+0x27>
        wait();
  4a:	e8 bc 02 00 00       	call   30b <wait>
  4f:	e8 b7 02 00 00       	call   30b <wait>
  54:	e8 b2 02 00 00       	call   30b <wait>
  59:	e8 ad 02 00 00       	call   30b <wait>
  5e:	e8 a8 02 00 00       	call   30b <wait>
    close_sharedmem(ID);
  63:	83 ec 0c             	sub    $0xc,%esp
  66:	6a 1e                	push   $0x1e
  68:	e8 66 03 00 00       	call   3d3 <close_sharedmem>
}
  6d:	8b 5d fc             	mov    -0x4(%ebp),%ebx
  70:	83 c4 10             	add    $0x10,%esp
  73:	c9                   	leave
  74:	c3                   	ret
            sleep(100 * i);
  75:	6b d2 64             	imul   $0x64,%edx,%edx
  78:	83 ec 0c             	sub    $0xc,%esp
  7b:	52                   	push   %edx
  7c:	e8 12 03 00 00       	call   393 <sleep>
            char* adrs = open_sharedmem(ID);
  81:	c7 04 24 1e 00 00 00 	movl   $0x1e,(%esp)
  88:	e8 3e 03 00 00       	call   3cb <open_sharedmem>
            printf(1, "%d\n", adrs[0]);
  8d:	83 c4 0c             	add    $0xc,%esp
            char* adrs = open_sharedmem(ID);
  90:	89 c2                	mov    %eax,%edx
            adrs[0] *= (i+1);
  92:	0f b6 00             	movzbl (%eax),%eax
  95:	0f af c3             	imul   %ebx,%eax
  98:	88 02                	mov    %al,(%edx)
            printf(1, "%d\n", adrs[0]);
  9a:	0f be c0             	movsbl %al,%eax
  9d:	50                   	push   %eax
  9e:	68 f8 07 00 00       	push   $0x7f8
  a3:	6a 01                	push   $0x1
  a5:	e8 e6 03 00 00       	call   490 <printf>
            close_sharedmem(ID);
  aa:	c7 04 24 1e 00 00 00 	movl   $0x1e,(%esp)
  b1:	e8 1d 03 00 00       	call   3d3 <close_sharedmem>
            exit();
  b6:	e8 48 02 00 00       	call   303 <exit>
  bb:	66 90                	xchg   %ax,%ax
  bd:	66 90                	xchg   %ax,%ax
  bf:	90                   	nop

000000c0 <strcpy>:
#include "user.h"
#include "x86.h"

char*
strcpy(char *s, const char *t)
{
  c0:	55                   	push   %ebp
  char *os;

  os = s;
  while((*s++ = *t++) != 0)
  c1:	31 c0                	xor    %eax,%eax
{
  c3:	89 e5                	mov    %esp,%ebp
  c5:	53                   	push   %ebx
  c6:	8b 4d 08             	mov    0x8(%ebp),%ecx
  c9:	8b 5d 0c             	mov    0xc(%ebp),%ebx
  cc:	8d 74 26 00          	lea    0x0(%esi,%eiz,1),%esi
  while((*s++ = *t++) != 0)
  d0:	0f b6 14 03          	movzbl (%ebx,%eax,1),%edx
  d4:	88 14 01             	mov    %dl,(%ecx,%eax,1)
  d7:	83 c0 01             	add    $0x1,%eax
  da:	84 d2                	test   %dl,%dl
  dc:	75 f2                	jne    d0 <strcpy+0x10>
    ;
  return os;
}
  de:	8b 5d fc             	mov    -0x4(%ebp),%ebx
  e1:	89 c8                	mov    %ecx,%eax
  e3:	c9                   	leave
  e4:	c3                   	ret
  e5:	2e 8d b4 26 00 00 00 	lea    %cs:0x0(%esi,%eiz,1),%esi
  ec:	00 
  ed:	8d 76 00             	lea    0x0(%esi),%esi

000000f0 <strcmp>:

int
strcmp(const char *p, const char *q)
{
  f0:	55                   	push   %ebp
  f1:	89 e5                	mov    %esp,%ebp
  f3:	53                   	push   %ebx
  f4:	8b 4d 08             	mov    0x8(%ebp),%ecx
  f7:	8b 55 0c             	mov    0xc(%ebp),%edx
  while(*p && *p == *q)
  fa:	0f b6 01             	movzbl (%ecx),%eax
  fd:	0f b6 1a             	movzbl (%edx),%ebx
 100:	84 c0                	test   %al,%al
 102:	75 1c                	jne    120 <strcmp+0x30>
 104:	eb 2e                	jmp    134 <strcmp+0x44>
 106:	2e 8d b4 26 00 00 00 	lea    %cs:0x0(%esi,%eiz,1),%esi
 10d:	00 
 10e:	66 90                	xchg   %ax,%ax
 110:	0f b6 41 01          	movzbl 0x1(%ecx),%eax
    p++, q++;
 114:	83 c1 01             	add    $0x1,%ecx
 117:	8d 5a 01             	lea    0x1(%edx),%ebx
  while(*p && *p == *q)
 11a:	84 c0                	test   %al,%al
 11c:	74 12                	je     130 <strcmp+0x40>
    p++, q++;
 11e:	89 da                	mov    %ebx,%edx
  while(*p && *p == *q)
 120:	0f b6 1a             	movzbl (%edx),%ebx
 123:	38 c3                	cmp    %al,%bl
 125:	74 e9                	je     110 <strcmp+0x20>
  return (uchar)*p - (uchar)*q;
 127:	29 d8                	sub    %ebx,%eax
}
 129:	8b 5d fc             	mov    -0x4(%ebp),%ebx
 12c:	c9                   	leave
 12d:	c3                   	ret
 12e:	66 90                	xchg   %ax,%ax
  return (uchar)*p - (uchar)*q;
 130:	0f b6 5a 01          	movzbl 0x1(%edx),%ebx
 134:	31 c0                	xor    %eax,%eax
 136:	29 d8                	sub    %ebx,%eax
}
 138:	8b 5d fc             	mov    -0x4(%ebp),%ebx
 13b:	c9                   	leave
 13c:	c3                   	ret
 13d:	8d 76 00             	lea    0x0(%esi),%esi

00000140 <strlen>:

uint
strlen(const char *s)
{
 140:	55                   	push   %ebp
 141:	89 e5                	mov    %esp,%ebp
 143:	8b 55 08             	mov    0x8(%ebp),%edx
  int n;

  for(n = 0; s[n]; n++)
 146:	80 3a 00             	cmpb   $0x0,(%edx)
 149:	74 15                	je     160 <strlen+0x20>
 14b:	31 c0                	xor    %eax,%eax
 14d:	8d 76 00             	lea    0x0(%esi),%esi
 150:	83 c0 01             	add    $0x1,%eax
 153:	80 3c 02 00          	cmpb   $0x0,(%edx,%eax,1)
 157:	89 c1                	mov    %eax,%ecx
 159:	75 f5                	jne    150 <strlen+0x10>
    ;
  return n;
}
 15b:	89 c8                	mov    %ecx,%eax
 15d:	5d                   	pop    %ebp
 15e:	c3                   	ret
 15f:	90                   	nop
  for(n = 0; s[n]; n++)
 160:	31 c9                	xor    %ecx,%ecx
}
 162:	5d                   	pop    %ebp
 163:	89 c8                	mov    %ecx,%eax
 165:	c3                   	ret
 166:	2e 8d b4 26 00 00 00 	lea    %cs:0x0(%esi,%eiz,1),%esi
 16d:	00 
 16e:	66 90                	xchg   %ax,%ax

00000170 <memset>:

void*
memset(void *dst, int c, uint n)
{
 170:	55                   	push   %ebp
 171:	89 e5                	mov    %esp,%ebp
 173:	57                   	push   %edi
 174:	8b 55 08             	mov    0x8(%ebp),%edx
}

static inline void
stosb(void *addr, int data, int cnt)
{
  asm volatile("cld; rep stosb" :
 177:	8b 4d 10             	mov    0x10(%ebp),%ecx
 17a:	8b 45 0c             	mov    0xc(%ebp),%eax
 17d:	89 d7                	mov    %edx,%edi
 17f:	fc                   	cld
 180:	f3 aa                	rep stos %al,%es:(%edi)
  stosb(dst, c, n);
  return dst;
}
 182:	8b 7d fc             	mov    -0x4(%ebp),%edi
 185:	89 d0                	mov    %edx,%eax
 187:	c9                   	leave
 188:	c3                   	ret
 189:	8d b4 26 00 00 00 00 	lea    0x0(%esi,%eiz,1),%esi

00000190 <strchr>:

char*
strchr(const char *s, char c)
{
 190:	55                   	push   %ebp
 191:	89 e5                	mov    %esp,%ebp
 193:	8b 45 08             	mov    0x8(%ebp),%eax
 196:	0f b6 4d 0c          	movzbl 0xc(%ebp),%ecx
  for(; *s; s++)
 19a:	0f b6 10             	movzbl (%eax),%edx
 19d:	84 d2                	test   %dl,%dl
 19f:	75 12                	jne    1b3 <strchr+0x23>
 1a1:	eb 1d                	jmp    1c0 <strchr+0x30>
 1a3:	2e 8d 74 26 00       	lea    %cs:0x0(%esi,%eiz,1),%esi
 1a8:	0f b6 50 01          	movzbl 0x1(%eax),%edx
 1ac:	83 c0 01             	add    $0x1,%eax
 1af:	84 d2                	test   %dl,%dl
 1b1:	74 0d                	je     1c0 <strchr+0x30>
    if(*s == c)
 1b3:	38 d1                	cmp    %dl,%cl
 1b5:	75 f1                	jne    1a8 <strchr+0x18>
      return (char*)s;
  return 0;
}
 1b7:	5d                   	pop    %ebp
 1b8:	c3                   	ret
 1b9:	8d b4 26 00 00 00 00 	lea    0x0(%esi,%eiz,1),%esi
  return 0;
 1c0:	31 c0                	xor    %eax,%eax
}
 1c2:	5d                   	pop    %ebp
 1c3:	c3                   	ret
 1c4:	2e 8d b4 26 00 00 00 	lea    %cs:0x0(%esi,%eiz,1),%esi
 1cb:	00 
 1cc:	8d 74 26 00          	lea    0x0(%esi,%eiz,1),%esi

000001d0 <gets>:

char*
gets(char *buf, int max)
{
 1d0:	55                   	push   %ebp
 1d1:	89 e5                	mov    %esp,%ebp
 1d3:	57                   	push   %edi
 1d4:	56                   	push   %esi
  int i, cc;
  char c;

  for(i=0; i+1 < max; ){
    cc = read(0, &c, 1);
 1d5:	8d 7d e7             	lea    -0x19(%ebp),%edi
{
 1d8:	53                   	push   %ebx
  for(i=0; i+1 < max; ){
 1d9:	31 db                	xor    %ebx,%ebx
{
 1db:	83 ec 1c             	sub    $0x1c,%esp
  for(i=0; i+1 < max; ){
 1de:	eb 27                	jmp    207 <gets+0x37>
    cc = read(0, &c, 1);
 1e0:	83 ec 04             	sub    $0x4,%esp
 1e3:	6a 01                	push   $0x1
 1e5:	57                   	push   %edi
 1e6:	6a 00                	push   $0x0
 1e8:	e8 2e 01 00 00       	call   31b <read>
    if(cc < 1)
 1ed:	83 c4 10             	add    $0x10,%esp
 1f0:	85 c0                	test   %eax,%eax
 1f2:	7e 1d                	jle    211 <gets+0x41>
      break;
    buf[i++] = c;
 1f4:	0f b6 45 e7          	movzbl -0x19(%ebp),%eax
 1f8:	8b 55 08             	mov    0x8(%ebp),%edx
 1fb:	88 44 1a ff          	mov    %al,-0x1(%edx,%ebx,1)
    if(c == '\n' || c == '\r')
 1ff:	3c 0a                	cmp    $0xa,%al
 201:	74 1d                	je     220 <gets+0x50>
 203:	3c 0d                	cmp    $0xd,%al
 205:	74 19                	je     220 <gets+0x50>
  for(i=0; i+1 < max; ){
 207:	89 de                	mov    %ebx,%esi
 209:	83 c3 01             	add    $0x1,%ebx
 20c:	3b 5d 0c             	cmp    0xc(%ebp),%ebx
 20f:	7c cf                	jl     1e0 <gets+0x10>
      break;
  }
  buf[i] = '\0';
 211:	8b 45 08             	mov    0x8(%ebp),%eax
 214:	c6 04 30 00          	movb   $0x0,(%eax,%esi,1)
  return buf;
}
 218:	8d 65 f4             	lea    -0xc(%ebp),%esp
 21b:	5b                   	pop    %ebx
 21c:	5e                   	pop    %esi
 21d:	5f                   	pop    %edi
 21e:	5d                   	pop    %ebp
 21f:	c3                   	ret
  buf[i] = '\0';
 220:	8b 45 08             	mov    0x8(%ebp),%eax
 223:	89 de                	mov    %ebx,%esi
 225:	c6 04 30 00          	movb   $0x0,(%eax,%esi,1)
}
 229:	8d 65 f4             	lea    -0xc(%ebp),%esp
 22c:	5b                   	pop    %ebx
 22d:	5e                   	pop    %esi
 22e:	5f                   	pop    %edi
 22f:	5d                   	pop    %ebp
 230:	c3                   	ret
 231:	2e 8d b4 26 00 00 00 	lea    %cs:0x0(%esi,%eiz,1),%esi
 238:	00 
 239:	8d b4 26 00 00 00 00 	lea    0x0(%esi,%eiz,1),%esi

00000240 <stat>:

int
stat(const char *n, struct stat *st)
{
 240:	55                   	push   %ebp
 241:	89 e5                	mov    %esp,%ebp
 243:	56                   	push   %esi
 244:	53                   	push   %ebx
  int fd;
  int r;

  fd = open(n, O_RDONLY);
 245:	83 ec 08             	sub    $0x8,%esp
 248:	6a 00                	push   $0x0
 24a:	ff 75 08             	push   0x8(%ebp)
 24d:	e8 f1 00 00 00       	call   343 <open>
  if(fd < 0)
 252:	83 c4 10             	add    $0x10,%esp
 255:	85 c0                	test   %eax,%eax
 257:	78 27                	js     280 <stat+0x40>
    return -1;
  r = fstat(fd, st);
 259:	83 ec 08             	sub    $0x8,%esp
 25c:	ff 75 0c             	push   0xc(%ebp)
 25f:	89 c3                	mov    %eax,%ebx
 261:	50                   	push   %eax
 262:	e8 f4 00 00 00       	call   35b <fstat>
  close(fd);
 267:	89 1c 24             	mov    %ebx,(%esp)
  r = fstat(fd, st);
 26a:	89 c6                	mov    %eax,%esi
  close(fd);
 26c:	e8 ba 00 00 00       	call   32b <close>
  return r;
 271:	83 c4 10             	add    $0x10,%esp
}
 274:	8d 65 f8             	lea    -0x8(%ebp),%esp
 277:	89 f0                	mov    %esi,%eax
 279:	5b                   	pop    %ebx
 27a:	5e                   	pop    %esi
 27b:	5d                   	pop    %ebp
 27c:	c3                   	ret
 27d:	8d 76 00             	lea    0x0(%esi),%esi
    return -1;
 280:	be ff ff ff ff       	mov    $0xffffffff,%esi
 285:	eb ed                	jmp    274 <stat+0x34>
 287:	2e 8d b4 26 00 00 00 	lea    %cs:0x0(%esi,%eiz,1),%esi
 28e:	00 
 28f:	90                   	nop

00000290 <atoi>:

int
atoi(const char *s)
{
 290:	55                   	push   %ebp
 291:	89 e5                	mov    %esp,%ebp
 293:	53                   	push   %ebx
 294:	8b 55 08             	mov    0x8(%ebp),%edx
  int n;

  n = 0;
  while('0' <= *s && *s <= '9')
 297:	0f be 02             	movsbl (%edx),%eax
 29a:	8d 48 d0             	lea    -0x30(%eax),%ecx
 29d:	80 f9 09             	cmp    $0x9,%cl
  n = 0;
 2a0:	b9 00 00 00 00       	mov    $0x0,%ecx
  while('0' <= *s && *s <= '9')
 2a5:	77 1e                	ja     2c5 <atoi+0x35>
 2a7:	2e 8d b4 26 00 00 00 	lea    %cs:0x0(%esi,%eiz,1),%esi
 2ae:	00 
 2af:	90                   	nop
    n = n*10 + *s++ - '0';
 2b0:	83 c2 01             	add    $0x1,%edx
 2b3:	8d 0c 89             	lea    (%ecx,%ecx,4),%ecx
 2b6:	8d 4c 48 d0          	lea    -0x30(%eax,%ecx,2),%ecx
  while('0' <= *s && *s <= '9')
 2ba:	0f be 02             	movsbl (%edx),%eax
 2bd:	8d 58 d0             	lea    -0x30(%eax),%ebx
 2c0:	80 fb 09             	cmp    $0x9,%bl
 2c3:	76 eb                	jbe    2b0 <atoi+0x20>
  return n;
}
 2c5:	8b 5d fc             	mov    -0x4(%ebp),%ebx
 2c8:	89 c8                	mov    %ecx,%eax
 2ca:	c9                   	leave
 2cb:	c3                   	ret
 2cc:	8d 74 26 00          	lea    0x0(%esi,%eiz,1),%esi

000002d0 <memmove>:

void*
memmove(void *vdst, const void *vsrc, int n)
{
 2d0:	55                   	push   %ebp
 2d1:	89 e5                	mov    %esp,%ebp
 2d3:	57                   	push   %edi
 2d4:	8b 45 10             	mov    0x10(%ebp),%eax
 2d7:	8b 55 08             	mov    0x8(%ebp),%edx
 2da:	56                   	push   %esi
 2db:	8b 75 0c             	mov    0xc(%ebp),%esi
  char *dst;
  const char *src;

  dst = vdst;
  src = vsrc;
  while(n-- > 0)
 2de:	85 c0                	test   %eax,%eax
 2e0:	7e 13                	jle    2f5 <memmove+0x25>
 2e2:	01 d0                	add    %edx,%eax
  dst = vdst;
 2e4:	89 d7                	mov    %edx,%edi
 2e6:	2e 8d b4 26 00 00 00 	lea    %cs:0x0(%esi,%eiz,1),%esi
 2ed:	00 
 2ee:	66 90                	xchg   %ax,%ax
    *dst++ = *src++;
 2f0:	a4                   	movsb  %ds:(%esi),%es:(%edi)
  while(n-- > 0)
 2f1:	39 f8                	cmp    %edi,%eax
 2f3:	75 fb                	jne    2f0 <memmove+0x20>
  return vdst;
}
 2f5:	5e                   	pop    %esi
 2f6:	89 d0                	mov    %edx,%eax
 2f8:	5f                   	pop    %edi
 2f9:	5d                   	pop    %ebp
 2fa:	c3                   	ret

000002fb <fork>:
  name: \
    movl $SYS_ ## name, %eax; \
    int $T_SYSCALL; \
    ret

SYSCALL(fork)
 2fb:	b8 01 00 00 00       	mov    $0x1,%eax
 300:	cd 40                	int    $0x40
 302:	c3                   	ret

00000303 <exit>:
SYSCALL(exit)
 303:	b8 02 00 00 00       	mov    $0x2,%eax
 308:	cd 40                	int    $0x40
 30a:	c3                   	ret

0000030b <wait>:
SYSCALL(wait)
 30b:	b8 03 00 00 00       	mov    $0x3,%eax
 310:	cd 40                	int    $0x40
 312:	c3                   	ret

00000313 <pipe>:
SYSCALL(pipe)
 313:	b8 04 00 00 00       	mov    $0x4,%eax
 318:	cd 40                	int    $0x40
 31a:	c3                   	ret

0000031b <read>:
SYSCALL(read)
 31b:	b8 05 00 00 00       	mov    $0x5,%eax
 320:	cd 40                	int    $0x40
 322:	c3                   	ret

00000323 <write>:
SYSCALL(write)
 323:	b8 10 00 00 00       	mov    $0x10,%eax
 328:	cd 40                	int    $0x40
 32a:	c3                   	ret

0000032b <close>:
SYSCALL(close)
 32b:	b8 15 00 00 00       	mov    $0x15,%eax
 330:	cd 40                	int    $0x40
 332:	c3                   	ret

00000333 <kill>:
SYSCALL(kill)
 333:	b8 06 00 00 00       	mov    $0x6,%eax
 338:	cd 40                	int    $0x40
 33a:	c3                   	ret

0000033b <exec>:
SYSCALL(exec)
 33b:	b8 07 00 00 00       	mov    $0x7,%eax
 340:	cd 40                	int    $0x40
 342:	c3                   	ret

00000343 <open>:
SYSCALL(open)
 343:	b8 0f 00 00 00       	mov    $0xf,%eax
 348:	cd 40                	int    $0x40
 34a:	c3                   	ret

0000034b <mknod>:
SYSCALL(mknod)
 34b:	b8 11 00 00 00       	mov    $0x11,%eax
 350:	cd 40                	int    $0x40
 352:	c3                   	ret

00000353 <unlink>:
SYSCALL(unlink)
 353:	b8 12 00 00 00       	mov    $0x12,%eax
 358:	cd 40                	int    $0x40
 35a:	c3                   	ret

0000035b <fstat>:
SYSCALL(fstat)
 35b:	b8 08 00 00 00       	mov    $0x8,%eax
 360:	cd 40                	int    $0x40
 362:	c3                   	ret

00000363 <link>:
SYSCALL(link)
 363:	b8 13 00 00 00       	mov    $0x13,%eax
 368:	cd 40                	int    $0x40
 36a:	c3                   	ret

0000036b <mkdir>:
SYSCALL(mkdir)
 36b:	b8 14 00 00 00       	mov    $0x14,%eax
 370:	cd 40                	int    $0x40
 372:	c3                   	ret

00000373 <chdir>:
SYSCALL(chdir)
 373:	b8 09 00 00 00       	mov    $0x9,%eax
 378:	cd 40                	int    $0x40
 37a:	c3                   	ret

0000037b <dup>:
SYSCALL(dup)
 37b:	b8 0a 00 00 00       	mov    $0xa,%eax
 380:	cd 40                	int    $0x40
 382:	c3                   	ret

00000383 <getpid>:
SYSCALL(getpid)
 383:	b8 0b 00 00 00       	mov    $0xb,%eax
 388:	cd 40                	int    $0x40
 38a:	c3                   	ret

0000038b <sbrk>:
SYSCALL(sbrk)
 38b:	b8 0c 00 00 00       	mov    $0xc,%eax
 390:	cd 40                	int    $0x40
 392:	c3                   	ret

00000393 <sleep>:
SYSCALL(sleep)
 393:	b8 0d 00 00 00       	mov    $0xd,%eax
 398:	cd 40                	int    $0x40
 39a:	c3                   	ret

0000039b <uptime>:
SYSCALL(uptime)
 39b:	b8 0e 00 00 00       	mov    $0xe,%eax
 3a0:	cd 40                	int    $0x40
 3a2:	c3                   	ret

000003a3 <create_palindrome>:
SYSCALL(create_palindrome)
 3a3:	b8 16 00 00 00       	mov    $0x16,%eax
 3a8:	cd 40                	int    $0x40
 3aa:	c3                   	ret

000003ab <sort_syscalls>:
SYSCALL(sort_syscalls)
 3ab:	b8 17 00 00 00       	mov    $0x17,%eax
 3b0:	cd 40                	int    $0x40
 3b2:	c3                   	ret

000003b3 <get_most_invoked_syscall>:
SYSCALL(get_most_invoked_syscall)
 3b3:	b8 18 00 00 00       	mov    $0x18,%eax
 3b8:	cd 40                	int    $0x40
 3ba:	c3                   	ret

000003bb <list_all_processes>:
SYSCALL(list_all_processes)
 3bb:	b8 19 00 00 00       	mov    $0x19,%eax
 3c0:	cd 40                	int    $0x40
 3c2:	c3                   	ret

000003c3 <move_file>:
SYSCALL(move_file)
 3c3:	b8 1a 00 00 00       	mov    $0x1a,%eax
 3c8:	cd 40                	int    $0x40
 3ca:	c3                   	ret

000003cb <open_sharedmem>:
SYSCALL(open_sharedmem)
 3cb:	b8 1b 00 00 00       	mov    $0x1b,%eax
 3d0:	cd 40                	int    $0x40
 3d2:	c3                   	ret

000003d3 <close_sharedmem>:
 3d3:	b8 1c 00 00 00       	mov    $0x1c,%eax
 3d8:	cd 40                	int    $0x40
 3da:	c3                   	ret
 3db:	66 90                	xchg   %ax,%ax
 3dd:	66 90                	xchg   %ax,%ax
 3df:	90                   	nop

000003e0 <printint>:
  write(fd, &c, 1);
}

static void
printint(int fd, int xx, int base, int sgn)
{
 3e0:	55                   	push   %ebp
 3e1:	89 e5                	mov    %esp,%ebp
 3e3:	57                   	push   %edi
 3e4:	56                   	push   %esi
 3e5:	53                   	push   %ebx
 3e6:	83 ec 3c             	sub    $0x3c,%esp
 3e9:	89 4d c4             	mov    %ecx,-0x3c(%ebp)
  uint x;

  neg = 0;
  if(sgn && xx < 0){
    neg = 1;
    x = -xx;
 3ec:	89 d1                	mov    %edx,%ecx
{
 3ee:	89 45 b8             	mov    %eax,-0x48(%ebp)
  if(sgn && xx < 0){
 3f1:	85 d2                	test   %edx,%edx
 3f3:	0f 89 7f 00 00 00    	jns    478 <printint+0x98>
 3f9:	f6 45 08 01          	testb  $0x1,0x8(%ebp)
 3fd:	74 79                	je     478 <printint+0x98>
    neg = 1;
 3ff:	c7 45 bc 01 00 00 00 	movl   $0x1,-0x44(%ebp)
    x = -xx;
 406:	f7 d9                	neg    %ecx
  } else {
    x = xx;
  }

  i = 0;
 408:	31 db                	xor    %ebx,%ebx
 40a:	8d 75 d7             	lea    -0x29(%ebp),%esi
 40d:	8d 76 00             	lea    0x0(%esi),%esi
  do{
    buf[i++] = digits[x % base];
 410:	89 c8                	mov    %ecx,%eax
 412:	31 d2                	xor    %edx,%edx
 414:	89 cf                	mov    %ecx,%edi
 416:	f7 75 c4             	divl   -0x3c(%ebp)
 419:	0f b6 92 04 08 00 00 	movzbl 0x804(%edx),%edx
 420:	89 45 c0             	mov    %eax,-0x40(%ebp)
 423:	89 d8                	mov    %ebx,%eax
 425:	8d 5b 01             	lea    0x1(%ebx),%ebx
  }while((x /= base) != 0);
 428:	8b 4d c0             	mov    -0x40(%ebp),%ecx
    buf[i++] = digits[x % base];
 42b:	88 14 1e             	mov    %dl,(%esi,%ebx,1)
  }while((x /= base) != 0);
 42e:	39 7d c4             	cmp    %edi,-0x3c(%ebp)
 431:	76 dd                	jbe    410 <printint+0x30>
  if(neg)
 433:	8b 4d bc             	mov    -0x44(%ebp),%ecx
 436:	85 c9                	test   %ecx,%ecx
 438:	74 0c                	je     446 <printint+0x66>
    buf[i++] = '-';
 43a:	c6 44 1d d8 2d       	movb   $0x2d,-0x28(%ebp,%ebx,1)
    buf[i++] = digits[x % base];
 43f:	89 d8                	mov    %ebx,%eax
    buf[i++] = '-';
 441:	ba 2d 00 00 00       	mov    $0x2d,%edx

  while(--i >= 0)
 446:	8b 7d b8             	mov    -0x48(%ebp),%edi
 449:	8d 5c 05 d7          	lea    -0x29(%ebp,%eax,1),%ebx
 44d:	eb 07                	jmp    456 <printint+0x76>
 44f:	90                   	nop
    putc(fd, buf[i]);
 450:	0f b6 13             	movzbl (%ebx),%edx
 453:	83 eb 01             	sub    $0x1,%ebx
  write(fd, &c, 1);
 456:	83 ec 04             	sub    $0x4,%esp
 459:	88 55 d7             	mov    %dl,-0x29(%ebp)
 45c:	6a 01                	push   $0x1
 45e:	56                   	push   %esi
 45f:	57                   	push   %edi
 460:	e8 be fe ff ff       	call   323 <write>
  while(--i >= 0)
 465:	83 c4 10             	add    $0x10,%esp
 468:	39 de                	cmp    %ebx,%esi
 46a:	75 e4                	jne    450 <printint+0x70>
}
 46c:	8d 65 f4             	lea    -0xc(%ebp),%esp
 46f:	5b                   	pop    %ebx
 470:	5e                   	pop    %esi
 471:	5f                   	pop    %edi
 472:	5d                   	pop    %ebp
 473:	c3                   	ret
 474:	8d 74 26 00          	lea    0x0(%esi,%eiz,1),%esi
  neg = 0;
 478:	c7 45 bc 00 00 00 00 	movl   $0x0,-0x44(%ebp)
 47f:	eb 87                	jmp    408 <printint+0x28>
 481:	2e 8d b4 26 00 00 00 	lea    %cs:0x0(%esi,%eiz,1),%esi
 488:	00 
 489:	8d b4 26 00 00 00 00 	lea    0x0(%esi,%eiz,1),%esi

00000490 <printf>:

// Print to the given fd. Only understands %d, %x, %p, %s.
void
printf(int fd, const char *fmt, ...)
{
 490:	55                   	push   %ebp
 491:	89 e5                	mov    %esp,%ebp
 493:	57                   	push   %edi
 494:	56                   	push   %esi
 495:	53                   	push   %ebx
 496:	83 ec 2c             	sub    $0x2c,%esp
  int c, i, state;
  uint *ap;

  state = 0;
  ap = (uint*)(void*)&fmt + 1;
  for(i = 0; fmt[i]; i++){
 499:	8b 75 0c             	mov    0xc(%ebp),%esi
 49c:	0f b6 1e             	movzbl (%esi),%ebx
 49f:	84 db                	test   %bl,%bl
 4a1:	0f 84 b8 00 00 00    	je     55f <printf+0xcf>
  ap = (uint*)(void*)&fmt + 1;
 4a7:	8d 45 10             	lea    0x10(%ebp),%eax
 4aa:	83 c6 01             	add    $0x1,%esi
  write(fd, &c, 1);
 4ad:	8d 7d e7             	lea    -0x19(%ebp),%edi
  state = 0;
 4b0:	31 d2                	xor    %edx,%edx
  ap = (uint*)(void*)&fmt + 1;
 4b2:	89 45 d0             	mov    %eax,-0x30(%ebp)
 4b5:	eb 37                	jmp    4ee <printf+0x5e>
 4b7:	2e 8d b4 26 00 00 00 	lea    %cs:0x0(%esi,%eiz,1),%esi
 4be:	00 
 4bf:	90                   	nop
 4c0:	89 55 d4             	mov    %edx,-0x2c(%ebp)
    c = fmt[i] & 0xff;
    if(state == 0){
      if(c == '%'){
        state = '%';
 4c3:	ba 25 00 00 00       	mov    $0x25,%edx
      if(c == '%'){
 4c8:	83 f8 25             	cmp    $0x25,%eax
 4cb:	74 17                	je     4e4 <printf+0x54>
  write(fd, &c, 1);
 4cd:	83 ec 04             	sub    $0x4,%esp
 4d0:	88 5d e7             	mov    %bl,-0x19(%ebp)
 4d3:	6a 01                	push   $0x1
 4d5:	57                   	push   %edi
 4d6:	ff 75 08             	push   0x8(%ebp)
 4d9:	e8 45 fe ff ff       	call   323 <write>
 4de:	8b 55 d4             	mov    -0x2c(%ebp),%edx
      } else {
        putc(fd, c);
 4e1:	83 c4 10             	add    $0x10,%esp
  for(i = 0; fmt[i]; i++){
 4e4:	0f b6 1e             	movzbl (%esi),%ebx
 4e7:	83 c6 01             	add    $0x1,%esi
 4ea:	84 db                	test   %bl,%bl
 4ec:	74 71                	je     55f <printf+0xcf>
    c = fmt[i] & 0xff;
 4ee:	0f be cb             	movsbl %bl,%ecx
 4f1:	0f b6 c3             	movzbl %bl,%eax
    if(state == 0){
 4f4:	85 d2                	test   %edx,%edx
 4f6:	74 c8                	je     4c0 <printf+0x30>
      }
    } else if(state == '%'){
 4f8:	83 fa 25             	cmp    $0x25,%edx
 4fb:	75 e7                	jne    4e4 <printf+0x54>
      if(c == 'd'){
 4fd:	83 f8 64             	cmp    $0x64,%eax
 500:	0f 84 9a 00 00 00    	je     5a0 <printf+0x110>
        printint(fd, *ap, 10, 1);
        ap++;
      } else if(c == 'x' || c == 'p'){
 506:	81 e1 f7 00 00 00    	and    $0xf7,%ecx
 50c:	83 f9 70             	cmp    $0x70,%ecx
 50f:	74 5f                	je     570 <printf+0xe0>
        printint(fd, *ap, 16, 0);
        ap++;
      } else if(c == 's'){
 511:	83 f8 73             	cmp    $0x73,%eax
 514:	0f 84 d6 00 00 00    	je     5f0 <printf+0x160>
          s = "(null)";
        while(*s != 0){
          putc(fd, *s);
          s++;
        }
      } else if(c == 'c'){
 51a:	83 f8 63             	cmp    $0x63,%eax
 51d:	0f 84 8d 00 00 00    	je     5b0 <printf+0x120>
        putc(fd, *ap);
        ap++;
      } else if(c == '%'){
 523:	83 f8 25             	cmp    $0x25,%eax
 526:	0f 84 b4 00 00 00    	je     5e0 <printf+0x150>
  write(fd, &c, 1);
 52c:	83 ec 04             	sub    $0x4,%esp
 52f:	c6 45 e7 25          	movb   $0x25,-0x19(%ebp)
 533:	6a 01                	push   $0x1
 535:	57                   	push   %edi
 536:	ff 75 08             	push   0x8(%ebp)
 539:	e8 e5 fd ff ff       	call   323 <write>
        putc(fd, c);
      } else {
        // Unknown % sequence.  Print it to draw attention.
        putc(fd, '%');
        putc(fd, c);
 53e:	88 5d e7             	mov    %bl,-0x19(%ebp)
  write(fd, &c, 1);
 541:	83 c4 0c             	add    $0xc,%esp
 544:	6a 01                	push   $0x1
  for(i = 0; fmt[i]; i++){
 546:	83 c6 01             	add    $0x1,%esi
  write(fd, &c, 1);
 549:	57                   	push   %edi
 54a:	ff 75 08             	push   0x8(%ebp)
 54d:	e8 d1 fd ff ff       	call   323 <write>
  for(i = 0; fmt[i]; i++){
 552:	0f b6 5e ff          	movzbl -0x1(%esi),%ebx
        putc(fd, c);
 556:	83 c4 10             	add    $0x10,%esp
      }
      state = 0;
 559:	31 d2                	xor    %edx,%edx
  for(i = 0; fmt[i]; i++){
 55b:	84 db                	test   %bl,%bl
 55d:	75 8f                	jne    4ee <printf+0x5e>
    }
  }
}
 55f:	8d 65 f4             	lea    -0xc(%ebp),%esp
 562:	5b                   	pop    %ebx
 563:	5e                   	pop    %esi
 564:	5f                   	pop    %edi
 565:	5d                   	pop    %ebp
 566:	c3                   	ret
 567:	2e 8d b4 26 00 00 00 	lea    %cs:0x0(%esi,%eiz,1),%esi
 56e:	00 
 56f:	90                   	nop
        printint(fd, *ap, 16, 0);
 570:	83 ec 0c             	sub    $0xc,%esp
 573:	b9 10 00 00 00       	mov    $0x10,%ecx
 578:	6a 00                	push   $0x0
 57a:	8b 5d d0             	mov    -0x30(%ebp),%ebx
 57d:	8b 45 08             	mov    0x8(%ebp),%eax
 580:	8b 13                	mov    (%ebx),%edx
 582:	e8 59 fe ff ff       	call   3e0 <printint>
        ap++;
 587:	89 d8                	mov    %ebx,%eax
 589:	83 c4 10             	add    $0x10,%esp
      state = 0;
 58c:	31 d2                	xor    %edx,%edx
        ap++;
 58e:	83 c0 04             	add    $0x4,%eax
 591:	89 45 d0             	mov    %eax,-0x30(%ebp)
 594:	e9 4b ff ff ff       	jmp    4e4 <printf+0x54>
 599:	8d b4 26 00 00 00 00 	lea    0x0(%esi,%eiz,1),%esi
        printint(fd, *ap, 10, 1);
 5a0:	83 ec 0c             	sub    $0xc,%esp
 5a3:	b9 0a 00 00 00       	mov    $0xa,%ecx
 5a8:	6a 01                	push   $0x1
 5aa:	eb ce                	jmp    57a <printf+0xea>
 5ac:	8d 74 26 00          	lea    0x0(%esi,%eiz,1),%esi
        putc(fd, *ap);
 5b0:	8b 5d d0             	mov    -0x30(%ebp),%ebx
  write(fd, &c, 1);
 5b3:	83 ec 04             	sub    $0x4,%esp
        putc(fd, *ap);
 5b6:	8b 03                	mov    (%ebx),%eax
  write(fd, &c, 1);
 5b8:	6a 01                	push   $0x1
        ap++;
 5ba:	83 c3 04             	add    $0x4,%ebx
  write(fd, &c, 1);
 5bd:	57                   	push   %edi
 5be:	ff 75 08             	push   0x8(%ebp)
        putc(fd, *ap);
 5c1:	88 45 e7             	mov    %al,-0x19(%ebp)
  write(fd, &c, 1);
 5c4:	e8 5a fd ff ff       	call   323 <write>
        ap++;
 5c9:	89 5d d0             	mov    %ebx,-0x30(%ebp)
 5cc:	83 c4 10             	add    $0x10,%esp
      state = 0;
 5cf:	31 d2                	xor    %edx,%edx
 5d1:	e9 0e ff ff ff       	jmp    4e4 <printf+0x54>
 5d6:	2e 8d b4 26 00 00 00 	lea    %cs:0x0(%esi,%eiz,1),%esi
 5dd:	00 
 5de:	66 90                	xchg   %ax,%ax
        putc(fd, c);
 5e0:	88 5d e7             	mov    %bl,-0x19(%ebp)
  write(fd, &c, 1);
 5e3:	83 ec 04             	sub    $0x4,%esp
 5e6:	e9 59 ff ff ff       	jmp    544 <printf+0xb4>
 5eb:	2e 8d 74 26 00       	lea    %cs:0x0(%esi,%eiz,1),%esi
        s = (char*)*ap;
 5f0:	8b 45 d0             	mov    -0x30(%ebp),%eax
 5f3:	8b 18                	mov    (%eax),%ebx
        ap++;
 5f5:	83 c0 04             	add    $0x4,%eax
 5f8:	89 45 d0             	mov    %eax,-0x30(%ebp)
        if(s == 0)
 5fb:	85 db                	test   %ebx,%ebx
 5fd:	74 17                	je     616 <printf+0x186>
        while(*s != 0){
 5ff:	0f b6 03             	movzbl (%ebx),%eax
      state = 0;
 602:	31 d2                	xor    %edx,%edx
        while(*s != 0){
 604:	84 c0                	test   %al,%al
 606:	0f 84 d8 fe ff ff    	je     4e4 <printf+0x54>
 60c:	89 75 d4             	mov    %esi,-0x2c(%ebp)
 60f:	89 de                	mov    %ebx,%esi
 611:	8b 5d 08             	mov    0x8(%ebp),%ebx
 614:	eb 1a                	jmp    630 <printf+0x1a0>
          s = "(null)";
 616:	bb fc 07 00 00       	mov    $0x7fc,%ebx
        while(*s != 0){
 61b:	89 75 d4             	mov    %esi,-0x2c(%ebp)
 61e:	b8 28 00 00 00       	mov    $0x28,%eax
 623:	89 de                	mov    %ebx,%esi
 625:	8b 5d 08             	mov    0x8(%ebp),%ebx
 628:	2e 8d b4 26 00 00 00 	lea    %cs:0x0(%esi,%eiz,1),%esi
 62f:	00 
  write(fd, &c, 1);
 630:	83 ec 04             	sub    $0x4,%esp
          s++;
 633:	83 c6 01             	add    $0x1,%esi
 636:	88 45 e7             	mov    %al,-0x19(%ebp)
  write(fd, &c, 1);
 639:	6a 01                	push   $0x1
 63b:	57                   	push   %edi
 63c:	53                   	push   %ebx
 63d:	e8 e1 fc ff ff       	call   323 <write>
        while(*s != 0){
 642:	0f b6 06             	movzbl (%esi),%eax
 645:	83 c4 10             	add    $0x10,%esp
 648:	84 c0                	test   %al,%al
 64a:	75 e4                	jne    630 <printf+0x1a0>
      state = 0;
 64c:	8b 75 d4             	mov    -0x2c(%ebp),%esi
 64f:	31 d2                	xor    %edx,%edx
 651:	e9 8e fe ff ff       	jmp    4e4 <printf+0x54>
 656:	66 90                	xchg   %ax,%ax
 658:	66 90                	xchg   %ax,%ax
 65a:	66 90                	xchg   %ax,%ax
 65c:	66 90                	xchg   %ax,%ax
 65e:	66 90                	xchg   %ax,%ax

00000660 <free>:
static Header base;
static Header *freep;

void
free(void *ap)
{
 660:	55                   	push   %ebp
  Header *bp, *p;

  bp = (Header*)ap - 1;
  for(p = freep; !(bp > p && bp < p->s.ptr); p = p->s.ptr)
 661:	a1 c8 0a 00 00       	mov    0xac8,%eax
{
 666:	89 e5                	mov    %esp,%ebp
 668:	57                   	push   %edi
 669:	56                   	push   %esi
 66a:	53                   	push   %ebx
 66b:	8b 5d 08             	mov    0x8(%ebp),%ebx
  bp = (Header*)ap - 1;
 66e:	8d 4b f8             	lea    -0x8(%ebx),%ecx
  for(p = freep; !(bp > p && bp < p->s.ptr); p = p->s.ptr)
 671:	8d b4 26 00 00 00 00 	lea    0x0(%esi,%eiz,1),%esi
 678:	89 c2                	mov    %eax,%edx
 67a:	8b 00                	mov    (%eax),%eax
 67c:	39 ca                	cmp    %ecx,%edx
 67e:	73 30                	jae    6b0 <free+0x50>
 680:	39 c1                	cmp    %eax,%ecx
 682:	72 04                	jb     688 <free+0x28>
    if(p >= p->s.ptr && (bp > p || bp < p->s.ptr))
 684:	39 c2                	cmp    %eax,%edx
 686:	72 f0                	jb     678 <free+0x18>
      break;
  if(bp + bp->s.size == p->s.ptr){
 688:	8b 73 fc             	mov    -0x4(%ebx),%esi
 68b:	8d 3c f1             	lea    (%ecx,%esi,8),%edi
 68e:	39 f8                	cmp    %edi,%eax
 690:	74 30                	je     6c2 <free+0x62>
    bp->s.size += p->s.ptr->s.size;
    bp->s.ptr = p->s.ptr->s.ptr;
  } else
    bp->s.ptr = p->s.ptr;
 692:	89 43 f8             	mov    %eax,-0x8(%ebx)
  if(p + p->s.size == bp){
 695:	8b 42 04             	mov    0x4(%edx),%eax
 698:	8d 34 c2             	lea    (%edx,%eax,8),%esi
 69b:	39 f1                	cmp    %esi,%ecx
 69d:	74 3a                	je     6d9 <free+0x79>
    p->s.size += bp->s.size;
    p->s.ptr = bp->s.ptr;
  } else
    p->s.ptr = bp;
 69f:	89 0a                	mov    %ecx,(%edx)
  freep = p;
}
 6a1:	5b                   	pop    %ebx
  freep = p;
 6a2:	89 15 c8 0a 00 00    	mov    %edx,0xac8
}
 6a8:	5e                   	pop    %esi
 6a9:	5f                   	pop    %edi
 6aa:	5d                   	pop    %ebp
 6ab:	c3                   	ret
 6ac:	8d 74 26 00          	lea    0x0(%esi,%eiz,1),%esi
    if(p >= p->s.ptr && (bp > p || bp < p->s.ptr))
 6b0:	39 c2                	cmp    %eax,%edx
 6b2:	72 c4                	jb     678 <free+0x18>
 6b4:	39 c1                	cmp    %eax,%ecx
 6b6:	73 c0                	jae    678 <free+0x18>
  if(bp + bp->s.size == p->s.ptr){
 6b8:	8b 73 fc             	mov    -0x4(%ebx),%esi
 6bb:	8d 3c f1             	lea    (%ecx,%esi,8),%edi
 6be:	39 f8                	cmp    %edi,%eax
 6c0:	75 d0                	jne    692 <free+0x32>
    bp->s.size += p->s.ptr->s.size;
 6c2:	03 70 04             	add    0x4(%eax),%esi
 6c5:	89 73 fc             	mov    %esi,-0x4(%ebx)
    bp->s.ptr = p->s.ptr->s.ptr;
 6c8:	8b 02                	mov    (%edx),%eax
 6ca:	8b 00                	mov    (%eax),%eax
 6cc:	89 43 f8             	mov    %eax,-0x8(%ebx)
  if(p + p->s.size == bp){
 6cf:	8b 42 04             	mov    0x4(%edx),%eax
 6d2:	8d 34 c2             	lea    (%edx,%eax,8),%esi
 6d5:	39 f1                	cmp    %esi,%ecx
 6d7:	75 c6                	jne    69f <free+0x3f>
    p->s.size += bp->s.size;
 6d9:	03 43 fc             	add    -0x4(%ebx),%eax
  freep = p;
 6dc:	89 15 c8 0a 00 00    	mov    %edx,0xac8
    p->s.size += bp->s.size;
 6e2:	89 42 04             	mov    %eax,0x4(%edx)
    p->s.ptr = bp->s.ptr;
 6e5:	8b 43 f8             	mov    -0x8(%ebx),%eax
 6e8:	89 02                	mov    %eax,(%edx)
}
 6ea:	5b                   	pop    %ebx
 6eb:	5e                   	pop    %esi
 6ec:	5f                   	pop    %edi
 6ed:	5d                   	pop    %ebp
 6ee:	c3                   	ret
 6ef:	90                   	nop

000006f0 <malloc>:
  return freep;
}

void*
malloc(uint nbytes)
{
 6f0:	55                   	push   %ebp
 6f1:	89 e5                	mov    %esp,%ebp
 6f3:	57                   	push   %edi
 6f4:	56                   	push   %esi
 6f5:	53                   	push   %ebx
 6f6:	83 ec 1c             	sub    $0x1c,%esp
  Header *p, *prevp;
  uint nunits;

  nunits = (nbytes + sizeof(Header) - 1)/sizeof(Header) + 1;
 6f9:	8b 45 08             	mov    0x8(%ebp),%eax
  if((prevp = freep) == 0){
 6fc:	8b 3d c8 0a 00 00    	mov    0xac8,%edi
  nunits = (nbytes + sizeof(Header) - 1)/sizeof(Header) + 1;
 702:	8d 70 07             	lea    0x7(%eax),%esi
 705:	c1 ee 03             	shr    $0x3,%esi
 708:	83 c6 01             	add    $0x1,%esi
  if((prevp = freep) == 0){
 70b:	85 ff                	test   %edi,%edi
 70d:	0f 84 ad 00 00 00    	je     7c0 <malloc+0xd0>
    base.s.ptr = freep = prevp = &base;
    base.s.size = 0;
  }
  for(p = prevp->s.ptr; ; prevp = p, p = p->s.ptr){
 713:	8b 07                	mov    (%edi),%eax
    if(p->s.size >= nunits){
 715:	8b 48 04             	mov    0x4(%eax),%ecx
 718:	39 f1                	cmp    %esi,%ecx
 71a:	73 71                	jae    78d <malloc+0x9d>
 71c:	81 fe 00 10 00 00    	cmp    $0x1000,%esi
 722:	bb 00 10 00 00       	mov    $0x1000,%ebx
 727:	0f 43 de             	cmovae %esi,%ebx
  p = sbrk(nu * sizeof(Header));
 72a:	8d 0c dd 00 00 00 00 	lea    0x0(,%ebx,8),%ecx
 731:	89 4d e4             	mov    %ecx,-0x1c(%ebp)
 734:	eb 1b                	jmp    751 <malloc+0x61>
 736:	2e 8d b4 26 00 00 00 	lea    %cs:0x0(%esi,%eiz,1),%esi
 73d:	00 
 73e:	66 90                	xchg   %ax,%ax
  for(p = prevp->s.ptr; ; prevp = p, p = p->s.ptr){
 740:	8b 10                	mov    (%eax),%edx
    if(p->s.size >= nunits){
 742:	8b 4a 04             	mov    0x4(%edx),%ecx
 745:	39 f1                	cmp    %esi,%ecx
 747:	73 4f                	jae    798 <malloc+0xa8>
        p->s.size = nunits;
      }
      freep = prevp;
      return (void*)(p + 1);
    }
    if(p == freep)
 749:	8b 3d c8 0a 00 00    	mov    0xac8,%edi
 74f:	89 d0                	mov    %edx,%eax
 751:	39 c7                	cmp    %eax,%edi
 753:	75 eb                	jne    740 <malloc+0x50>
  p = sbrk(nu * sizeof(Header));
 755:	83 ec 0c             	sub    $0xc,%esp
 758:	ff 75 e4             	push   -0x1c(%ebp)
 75b:	e8 2b fc ff ff       	call   38b <sbrk>
  if(p == (char*)-1)
 760:	83 c4 10             	add    $0x10,%esp
 763:	83 f8 ff             	cmp    $0xffffffff,%eax
 766:	74 1b                	je     783 <malloc+0x93>
  hp->s.size = nu;
 768:	89 58 04             	mov    %ebx,0x4(%eax)
  free((void*)(hp + 1));
 76b:	83 ec 0c             	sub    $0xc,%esp
 76e:	83 c0 08             	add    $0x8,%eax
 771:	50                   	push   %eax
 772:	e8 e9 fe ff ff       	call   660 <free>
  return freep;
 777:	a1 c8 0a 00 00       	mov    0xac8,%eax
      if((p = morecore(nunits)) == 0)
 77c:	83 c4 10             	add    $0x10,%esp
 77f:	85 c0                	test   %eax,%eax
 781:	75 bd                	jne    740 <malloc+0x50>
        return 0;
  }
}
 783:	8d 65 f4             	lea    -0xc(%ebp),%esp
        return 0;
 786:	31 c0                	xor    %eax,%eax
}
 788:	5b                   	pop    %ebx
 789:	5e                   	pop    %esi
 78a:	5f                   	pop    %edi
 78b:	5d                   	pop    %ebp
 78c:	c3                   	ret
    if(p->s.size >= nunits){
 78d:	89 c2                	mov    %eax,%edx
 78f:	89 f8                	mov    %edi,%eax
 791:	8d b4 26 00 00 00 00 	lea    0x0(%esi,%eiz,1),%esi
      if(p->s.size == nunits)
 798:	39 ce                	cmp    %ecx,%esi
 79a:	74 54                	je     7f0 <malloc+0x100>
        p->s.size -= nunits;
 79c:	29 f1                	sub    %esi,%ecx
 79e:	89 4a 04             	mov    %ecx,0x4(%edx)
        p += p->s.size;
 7a1:	8d 14 ca             	lea    (%edx,%ecx,8),%edx
        p->s.size = nunits;
 7a4:	89 72 04             	mov    %esi,0x4(%edx)
      freep = prevp;
 7a7:	a3 c8 0a 00 00       	mov    %eax,0xac8
}
 7ac:	8d 65 f4             	lea    -0xc(%ebp),%esp
      return (void*)(p + 1);
 7af:	8d 42 08             	lea    0x8(%edx),%eax
}
 7b2:	5b                   	pop    %ebx
 7b3:	5e                   	pop    %esi
 7b4:	5f                   	pop    %edi
 7b5:	5d                   	pop    %ebp
 7b6:	c3                   	ret
 7b7:	2e 8d b4 26 00 00 00 	lea    %cs:0x0(%esi,%eiz,1),%esi
 7be:	00 
 7bf:	90                   	nop
    base.s.ptr = freep = prevp = &base;
 7c0:	c7 05 c8 0a 00 00 cc 	movl   $0xacc,0xac8
 7c7:	0a 00 00 
    base.s.size = 0;
 7ca:	bf cc 0a 00 00       	mov    $0xacc,%edi
    base.s.ptr = freep = prevp = &base;
 7cf:	c7 05 cc 0a 00 00 cc 	movl   $0xacc,0xacc
 7d6:	0a 00 00 
  for(p = prevp->s.ptr; ; prevp = p, p = p->s.ptr){
 7d9:	89 f8                	mov    %edi,%eax
    base.s.size = 0;
 7db:	c7 05 d0 0a 00 00 00 	movl   $0x0,0xad0
 7e2:	00 00 00 
    if(p->s.size >= nunits){
 7e5:	e9 32 ff ff ff       	jmp    71c <malloc+0x2c>
 7ea:	8d b6 00 00 00 00    	lea    0x0(%esi),%esi
        prevp->s.ptr = p->s.ptr;
 7f0:	8b 0a                	mov    (%edx),%ecx
 7f2:	89 08                	mov    %ecx,(%eax)
 7f4:	eb b1                	jmp    7a7 <malloc+0xb7>
